; Function Attrs: nounwind uwtable
define noalias noundef ptr @Gia_ManCollectPath(ptr noundef readonly captures(none) %0, ptr noundef %1) local_unnamed_addr #0 {
  %3 = getelementptr inbounds nuw i8, ptr %0, i64 168
  %4 = load i32, ptr %3, align 8, !tbaa !49
  %5 = tail call noalias dereferenceable_or_null(16) ptr @malloc(i64 noundef 16) #19
  %6 = add i32 %4, -1
  %or.cond.i = icmp ult i32 %6, 15
  %spec.store.select.i = select i1 %or.cond.i, i32 16, i32 %4
  %7 = getelementptr inbounds nuw i8, ptr %5, i64 4
  store i32 0, ptr %7, align 4, !tbaa !30
  store i32 %spec.store.select.i, ptr %5, align 8, !tbaa !37
  %.not.i = icmp eq i32 %spec.store.select.i, 0
  br i1 %.not.i, label %Vec_IntAlloc.exit, label %8

8:                                                ; preds = %2
  %9 = sext i32 %spec.store.select.i to i64
  %10 = shl nsw i64 %9, 2
  %11 = tail call noalias ptr @malloc(i64 noundef %10) #19
  br label %Vec_IntAlloc.exit

Vec_IntAlloc.exit:                                ; preds = %2, %8
  %12 = phi ptr [ %11, %8 ], [ null, %2 ]
  %13 = getelementptr inbounds nuw i8, ptr %5, i64 8
  store ptr %12, ptr %13, align 8, !tbaa !3
  %.val = load i64, ptr %1, align 4
  %14 = and i64 %.val, 2147483648
  %.not.i7 = icmp eq i64 %14, 0
  %15 = and i64 %.val, 536870911
  %16 = icmp eq i64 %15, 536870911
  %narrow.i.not = or i1 %.not.i7, %16
  %17 = sub nsw i64 0, %15
  %.idx = select i1 %narrow.i.not, i64 0, i64 %17
  %18 = getelementptr inbounds %struct.Gia_Obj_t_, ptr %1, i64 %.idx
  tail call void @Gia_ManCollectPath_rec(ptr noundef nonnull %0, ptr noundef nonnull %18, ptr noundef nonnull %5)
  ret ptr %5
}